; Function Attrs: nounwind uwtable
define hidden void @mbedtls_net_close(ptr noundef captures(none) %0) local_unnamed_addr #1 {
  %2 = load i32, ptr %0, align 4, !tbaa !3
  %3 = icmp eq i32 %2, -1
  br i1 %3, label %6, label %4

4:                                                ; preds = %1
  %5 = tail call i32 @close(i32 noundef %2) #9
  store i32 -1, ptr %0, align 4, !tbaa !3
  br label %6

6:                                                ; preds = %1, %4
  ret void
}